target datalayout = "e-m:e-p270:32:32-p271:32:32-p272:64:64-i64:64-i128:128-f80:128-n8:16:32:64-S128"
target triple = "x86_64-pc-linux-gnu"

%struct.slurm_conf_t = type { i64, ptr, i16, ptr, ptr, ptr, ptr, ptr, i16, ptr, ptr, ptr, ptr, ptr, ptr, ptr, i16, ptr, ptr, ptr, ptr, i16, ptr, ptr, ptr, i64, ptr, ptr, ptr, ptr, i16, ptr, ptr, i16, i32, ptr, i32, ptr, i32, i32, ptr, ptr, i64, i64, ptr, i16, i16, ptr, i32, i32, ptr, i32, ptr, i32, i16, i16, i16, ptr, i16, i16, ptr, ptr, i32, i16, i16, ptr, i32, i16, ptr, ptr, ptr, ptr, i16, ptr, ptr, ptr, ptr, i32, ptr, ptr, ptr, ptr, i16, i16, ptr, i32, i32, i32, i16, i16, ptr, ptr, i16, ptr, ptr, i32, i32, i32, i32, i32, i64, i32, i32, i16, ptr, ptr, i32, ptr, ptr, ptr, i16, i32, ptr, ptr, i16, ptr, ptr, i32, i16, ptr, ptr, ptr, ptr, i32, i32, i16, i16, i32, ptr, i16, ptr, i32, i32, i32, i32, i32, i32, ptr, i16, ptr, ptr, i32, i16, ptr, i32, i16, i16, ptr, ptr, ptr, i16, ptr, ptr, ptr, ptr, i16, i16, ptr, i16, ptr, i16, ptr, i16, ptr, i16, ptr, ptr, ptr, ptr, i16, ptr, ptr, ptr, i32, ptr, i32, ptr, ptr, i16, ptr, ptr, i32, i16, ptr, ptr, i16, i16, ptr, i16, ptr, ptr, ptr, i32, ptr, i16, i16, ptr, ptr, ptr, ptr, ptr, ptr, ptr, ptr, i16, i32, i16, ptr, ptr, ptr, ptr, i32, ptr, ptr, ptr, i16, ptr, ptr, ptr, i16, ptr, i16, ptr, i16, i16, ptr }
%struct.cgroup_acct_t = type { i64, i64, i64, i64, i64, i64 }

@plugin_type = dso_local constant [10 x i8] c"cgroup/v1\00", align 1
@g_task_list = dso_local global [5 x ptr] zeroinitializer, align 16
@slurm_conf = external global %struct.slurm_conf_t, align 8
@.str.24 = private unnamed_addr constant [12 x i8] c"cgroup_v1.c\00", align 1
@.str.63 = private unnamed_addr constant [57 x i8] c"Could not find task_cpuacct_cg, this should never happen\00", align 1
@.str.64 = private unnamed_addr constant [56 x i8] c"Could not find task_memory_cg, this should never happen\00", align 1
@__func__.cgroup_p_task_get_acct_data = private unnamed_addr constant [28 x i8] c"cgroup_p_task_get_acct_data\00", align 1
@.str.65 = private unnamed_addr constant [13 x i8] c"cpuacct.stat\00", align 1
@.str.66 = private unnamed_addr constant [16 x i8] c"%*s %lu %*s %lu\00", align 1
@.str.67 = private unnamed_addr constant [12 x i8] c"memory.stat\00", align 1
@.str.68 = private unnamed_addr constant [10 x i8] c"total_rss\00", align 1
@.str.69 = private unnamed_addr constant [14 x i8] c"total_rss %lu\00", align 1
@.str.70 = private unnamed_addr constant [17 x i8] c"total_pgmajfault\00", align 1
@.str.71 = private unnamed_addr constant [21 x i8] c"total_pgmajfault %lu\00", align 1
@.str.72 = private unnamed_addr constant [12 x i8] c"total_cache\00", align 1
@.str.73 = private unnamed_addr constant [16 x i8] c"total_cache %lu\00", align 1
@.str.74 = private unnamed_addr constant [11 x i8] c"total_swap\00", align 1
@.str.75 = private unnamed_addr constant [15 x i8] c"total_swap %lu\00", align 1
@.str.76 = private unnamed_addr constant [26 x i8] c"memory.max_usage_in_bytes\00", align 1
@.str.77 = private unnamed_addr constant [72 x i8] c"%s: %s: CGROUP: Cannot read task %d memory.max_usage_in_bytes interface\00", align 1
@.str.78 = private unnamed_addr constant [4 x i8] c"%lu\00", align 1
@.str.79 = private unnamed_addr constant [49 x i8] c"Cannot parse memory.max_usage_in_bytes interface\00", align 1

; Function Attrs: nounwind uwtable
define dso_local ptr @cgroup_p_task_get_acct_data(i32 noundef %0) #0 {
  %2 = alloca ptr, align 8
  %3 = alloca i32, align 4
  %4 = alloca ptr, align 8
  %5 = alloca ptr, align 8
  %6 = alloca ptr, align 8
  %7 = alloca ptr, align 8
  %8 = alloca i64, align 8
  %9 = alloca i64, align 8
  %10 = alloca i64, align 8
  %11 = alloca ptr, align 8
  %12 = alloca ptr, align 8
  %13 = alloca ptr, align 8
  %14 = alloca i32, align 4
  %15 = alloca i64, align 8
  %16 = alloca i64, align 8
  store i32 %0, ptr %3, align 4
  call void @llvm.lifetime.start.p0(i64 8, ptr %4) #7
  store ptr null, ptr %4, align 8
  call void @llvm.lifetime.start.p0(i64 8, ptr %5) #7
  store ptr null, ptr %5, align 8
  call void @llvm.lifetime.start.p0(i64 8, ptr %6) #7
  call void @llvm.lifetime.start.p0(i64 8, ptr %7) #7
  store ptr null, ptr %7, align 8
  call void @llvm.lifetime.start.p0(i64 8, ptr %8) #7
  store i64 0, ptr %8, align 8
  call void @llvm.lifetime.start.p0(i64 8, ptr %9) #7
  store i64 0, ptr %9, align 8
  call void @llvm.lifetime.start.p0(i64 8, ptr %10) #7
  store i64 0, ptr %10, align 8
  call void @llvm.lifetime.start.p0(i64 8, ptr %11) #7
  store ptr null, ptr %11, align 8
  call void @llvm.lifetime.start.p0(i64 8, ptr %12) #7
  store ptr null, ptr %12, align 8
  call void @llvm.lifetime.start.p0(i64 8, ptr %13) #7
  store ptr null, ptr %13, align 8
  %17 = load ptr, ptr getelementptr inbounds ([5 x ptr], ptr @g_task_list, i64 0, i64 2), align 16
  %18 = call ptr @list_find_first(ptr noundef %17, ptr noundef @_find_task_cg_info, ptr noundef %3)
  store ptr %18, ptr %13, align 8
  %19 = load ptr, ptr getelementptr inbounds ([5 x ptr], ptr @g_task_list, i64 0, i64 4), align 16
  %20 = call ptr @list_find_first(ptr noundef %19, ptr noundef @_find_task_cg_info, ptr noundef %3)
  store ptr %20, ptr %12, align 8
  %21 = load ptr, ptr %12, align 8
  %22 = icmp ne ptr %21, null
  br i1 %22, label %25, label %23

23:                                               ; preds = %1
  %24 = call i32 (ptr, ...) @error(ptr noundef @.str.63)
  store ptr null, ptr %2, align 8
  store i32 1, ptr %14, align 4
  br label %155

25:                                               ; preds = %1
  %26 = load ptr, ptr %13, align 8
  %27 = icmp ne ptr %26, null
  br i1 %27, label %30, label %28

28:                                               ; preds = %25
  %29 = call i32 (ptr, ...) @error(ptr noundef @.str.64)
  store ptr null, ptr %2, align 8
  store i32 1, ptr %14, align 4
  br label %155

30:                                               ; preds = %25
  %31 = call ptr @slurm_xcalloc(i64 noundef 1, i64 noundef 48, i1 noundef zeroext true, i1 noundef zeroext false, ptr noundef @.str.24, i32 noundef 1461, ptr noundef @__func__.cgroup_p_task_get_acct_data)
  store ptr %31, ptr %11, align 8
  %32 = load ptr, ptr %11, align 8
  %33 = getelementptr inbounds nuw %struct.cgroup_acct_t, ptr %32, i32 0, i32 1
  store i64 -2, ptr %33, align 8
  %34 = load ptr, ptr %11, align 8
  %35 = getelementptr inbounds nuw %struct.cgroup_acct_t, ptr %34, i32 0, i32 2
  store i64 -2, ptr %35, align 8
  %36 = load ptr, ptr %11, align 8
  %37 = getelementptr inbounds nuw %struct.cgroup_acct_t, ptr %36, i32 0, i32 3
  store i64 -2, ptr %37, align 8
  %38 = load ptr, ptr %11, align 8
  %39 = getelementptr inbounds nuw %struct.cgroup_acct_t, ptr %38, i32 0, i32 4
  store i64 -2, ptr %39, align 8
  %40 = load ptr, ptr %11, align 8
  %41 = getelementptr inbounds nuw %struct.cgroup_acct_t, ptr %40, i32 0, i32 5
  store i64 -2, ptr %41, align 8
  %42 = load ptr, ptr %11, align 8
  %43 = getelementptr inbounds nuw %struct.cgroup_acct_t, ptr %42, i32 0, i32 0
  store i64 -1, ptr %43, align 8
  %44 = load ptr, ptr %12, align 8
  %45 = call i32 @common_cgroup_get_param(ptr noundef %44, ptr noundef @.str.65, ptr noundef %4, ptr noundef %8)
  %46 = icmp eq i32 %45, 0
  br i1 %46, label %47, label %54

47:                                               ; preds = %30
  %48 = load ptr, ptr %4, align 8
  %49 = load ptr, ptr %11, align 8
  %50 = getelementptr inbounds nuw %struct.cgroup_acct_t, ptr %49, i32 0, i32 1
  %51 = load ptr, ptr %11, align 8
  %52 = getelementptr inbounds nuw %struct.cgroup_acct_t, ptr %51, i32 0, i32 2
  %53 = call i32 (ptr, ptr, ...) @__isoc99_sscanf(ptr noundef %48, ptr noundef @.str.66, ptr noundef %50, ptr noundef %52) #7
  br label %54

54:                                               ; preds = %47, %30
  %55 = load ptr, ptr %13, align 8
  %56 = call i32 @common_cgroup_get_param(ptr noundef %55, ptr noundef @.str.67, ptr noundef %5, ptr noundef %9)
  %57 = icmp eq i32 %56, 0
  br i1 %57, label %58, label %77

58:                                               ; preds = %54
  %59 = load ptr, ptr %5, align 8
  %60 = call ptr @xstrstr(ptr noundef %59, ptr noundef @.str.68)
  store ptr %60, ptr %6, align 8
  %61 = icmp ne ptr %60, null
  br i1 %61, label %62, label %67

62:                                               ; preds = %58
  %63 = load ptr, ptr %6, align 8
  %64 = load ptr, ptr %11, align 8
  %65 = getelementptr inbounds nuw %struct.cgroup_acct_t, ptr %64, i32 0, i32 3
  %66 = call i32 (ptr, ptr, ...) @__isoc99_sscanf(ptr noundef %63, ptr noundef @.str.69, ptr noundef %65) #7
  br label %67

67:                                               ; preds = %62, %58
  %68 = load ptr, ptr %5, align 8
  %69 = call ptr @xstrstr(ptr noundef %68, ptr noundef @.str.70)
  store ptr %69, ptr %6, align 8
  %70 = icmp ne ptr %69, null
  br i1 %70, label %71, label %76

71:                                               ; preds = %67
  %72 = load ptr, ptr %6, align 8
  %73 = load ptr, ptr %11, align 8
  %74 = getelementptr inbounds nuw %struct.cgroup_acct_t, ptr %73, i32 0, i32 4
  %75 = call i32 (ptr, ptr, ...) @__isoc99_sscanf(ptr noundef %72, ptr noundef @.str.71, ptr noundef %74) #7
  br label %76

76:                                               ; preds = %71, %67
  br label %77

77:                                               ; preds = %76, %54
  %78 = load ptr, ptr %11, align 8
  %79 = getelementptr inbounds nuw %struct.cgroup_acct_t, ptr %78, i32 0, i32 3
  %80 = load i64, ptr %79, align 8
  %81 = icmp ne i64 %80, -2
  br i1 %81, label %82, label %120

82:                                               ; preds = %77
  call void @llvm.lifetime.start.p0(i64 8, ptr %15) #7
  store i64 -2, ptr %15, align 8
  call void @llvm.lifetime.start.p0(i64 8, ptr %16) #7
  store i64 -2, ptr %16, align 8
  %83 = load ptr, ptr %5, align 8
  %84 = call ptr @xstrstr(ptr noundef %83, ptr noundef @.str.72)
  store ptr %84, ptr %6, align 8
  %85 = icmp ne ptr %84, null
  br i1 %85, label %86, label %89

86:                                               ; preds = %82
  %87 = load ptr, ptr %6, align 8
  %88 = call i32 (ptr, ptr, ...) @__isoc99_sscanf(ptr noundef %87, ptr noundef @.str.73, ptr noundef %15) #7
  br label %89

89:                                               ; preds = %86, %82
  %90 = load ptr, ptr %5, align 8
  %91 = call ptr @xstrstr(ptr noundef %90, ptr noundef @.str.74)
  store ptr %91, ptr %6, align 8
  %92 = icmp ne ptr %91, null
  br i1 %92, label %93, label %96

93:                                               ; preds = %89
  %94 = load ptr, ptr %6, align 8
  %95 = call i32 (ptr, ptr, ...) @__isoc99_sscanf(ptr noundef %94, ptr noundef @.str.75, ptr noundef %16) #7
  br label %96

96:                                               ; preds = %93, %89
  %97 = load ptr, ptr %11, align 8
  %98 = getelementptr inbounds nuw %struct.cgroup_acct_t, ptr %97, i32 0, i32 3
  %99 = load i64, ptr %98, align 8
  %100 = load ptr, ptr %11, align 8
  %101 = getelementptr inbounds nuw %struct.cgroup_acct_t, ptr %100, i32 0, i32 5
  store i64 %99, ptr %101, align 8
  %102 = load i64, ptr %15, align 8
  %103 = icmp ne i64 %102, -2
  br i1 %103, label %104, label %110

104:                                              ; preds = %96
  %105 = load i64, ptr %15, align 8
  %106 = load ptr, ptr %11, align 8
  %107 = getelementptr inbounds nuw %struct.cgroup_acct_t, ptr %106, i32 0, i32 5
  %108 = load i64, ptr %107, align 8
  %109 = add i64 %108, %105
  store i64 %109, ptr %107, align 8
  br label %110

110:                                              ; preds = %104, %96
  %111 = load i64, ptr %16, align 8
  %112 = icmp ne i64 %111, -2
  br i1 %112, label %113, label %119

113:                                              ; preds = %110
  %114 = load i64, ptr %16, align 8
  %115 = load ptr, ptr %11, align 8
  %116 = getelementptr inbounds nuw %struct.cgroup_acct_t, ptr %115, i32 0, i32 5
  %117 = load i64, ptr %116, align 8
  %118 = add i64 %117, %114
  store i64 %118, ptr %116, align 8
  br label %119

119:                                              ; preds = %113, %110
  call void @llvm.lifetime.end.p0(i64 8, ptr %16) #7
  call void @llvm.lifetime.end.p0(i64 8, ptr %15) #7
  br label %120

120:                                              ; preds = %119, %77
  %121 = load ptr, ptr %13, align 8
  %122 = call i32 @common_cgroup_get_param(ptr noundef %121, ptr noundef @.str.76, ptr noundef %7, ptr noundef %10)
  %123 = icmp ne i32 %122, 0
  br i1 %123, label %124, label %141

124:                                              ; preds = %120
  br label %125

125:                                              ; preds = %124
  %126 = load i64, ptr getelementptr inbounds nuw (%struct.slurm_conf_t, ptr @slurm_conf, i32 0, i32 42), align 8
  %127 = and i64 %126, 36028797018963968
  %128 = icmp ne i64 %127, 0
  br i1 %128, label %129, label %138

129:                                              ; preds = %125
  br label %130

130:                                              ; preds = %129
  %131 = call i32 @get_log_level()
  %132 = icmp sge i32 %131, 4
  br i1 %132, label %133, label %135

133:                                              ; preds = %130
  %134 = load i32, ptr %3, align 4
  call void (i32, ptr, ...) @log_var(i32 noundef 4, ptr noundef @.str.77, ptr noundef @plugin_type, ptr noundef @__func__.cgroup_p_task_get_acct_data, i32 noundef %134)
  br label %135

135:                                              ; preds = %133, %130
  br label %136

136:                                              ; preds = %135
  br label %137

137:                                              ; preds = %136
  br label %138

138:                                              ; preds = %137, %125
  br label %139

139:                                              ; preds = %138
  br label %140

140:                                              ; preds = %139
  br label %141

141:                                              ; preds = %140, %120
  %142 = load ptr, ptr %7, align 8
  %143 = icmp ne ptr %142, null
  br i1 %143, label %144, label %153

144:                                              ; preds = %141
  %145 = load ptr, ptr %7, align 8
  %146 = load ptr, ptr %11, align 8
  %147 = getelementptr inbounds nuw %struct.cgroup_acct_t, ptr %146, i32 0, i32 0
  %148 = call i32 (ptr, ptr, ...) @__isoc99_sscanf(ptr noundef %145, ptr noundef @.str.78, ptr noundef %147) #7
  %149 = icmp ne i32 %148, 1
  br i1 %149, label %150, label %152

150:                                              ; preds = %144
  %151 = call i32 (ptr, ...) @error(ptr noundef @.str.79)
  br label %152

152:                                              ; preds = %150, %144
  br label %153

153:                                              ; preds = %152, %141
  call void @slurm_xfree(ptr noundef %4)
  call void @slurm_xfree(ptr noundef %5)
  call void @slurm_xfree(ptr noundef %7)
  %154 = load ptr, ptr %11, align 8
  store ptr %154, ptr %2, align 8
  store i32 1, ptr %14, align 4
  br label %155

155:                                              ; preds = %153, %28, %23
  call void @llvm.lifetime.end.p0(i64 8, ptr %13) #7
  call void @llvm.lifetime.end.p0(i64 8, ptr %12) #7
  call void @llvm.lifetime.end.p0(i64 8, ptr %11) #7
  call void @llvm.lifetime.end.p0(i64 8, ptr %10) #7
  call void @llvm.lifetime.end.p0(i64 8, ptr %9) #7
  call void @llvm.lifetime.end.p0(i64 8, ptr %8) #7
  call void @llvm.lifetime.end.p0(i64 8, ptr %7) #7
  call void @llvm.lifetime.end.p0(i64 8, ptr %6) #7
  call void @llvm.lifetime.end.p0(i64 8, ptr %5) #7
  call void @llvm.lifetime.end.p0(i64 8, ptr %4) #7
  %156 = load ptr, ptr %2, align 8
  ret ptr %156
}