; Function Attrs: nounwind uwtable
define dso_local noundef ptr @cgroup_p_task_get_acct_data(i32 noundef %0) local_unnamed_addr #0 {
  %2 = alloca i32, align 4
  %3 = alloca ptr, align 8
  %4 = alloca ptr, align 8
  %5 = alloca ptr, align 8
  %6 = alloca i64, align 8
  %7 = alloca i64, align 8
  %8 = alloca i64, align 8
  %9 = alloca i64, align 8
  %10 = alloca i64, align 8
  store i32 %0, ptr %2, align 4
  call void @llvm.lifetime.start.p0(i64 8, ptr nonnull %3) #11
  store ptr null, ptr %3, align 8
  call void @llvm.lifetime.start.p0(i64 8, ptr nonnull %4) #11
  store ptr null, ptr %4, align 8
  call void @llvm.lifetime.start.p0(i64 8, ptr nonnull %5) #11
  store ptr null, ptr %5, align 8
  call void @llvm.lifetime.start.p0(i64 8, ptr nonnull %6) #11
  store i64 0, ptr %6, align 8
  call void @llvm.lifetime.start.p0(i64 8, ptr nonnull %7) #11
  store i64 0, ptr %7, align 8
  call void @llvm.lifetime.start.p0(i64 8, ptr nonnull %8) #11
  store i64 0, ptr %8, align 8
  %11 = load ptr, ptr getelementptr inbounds nuw (i8, ptr @g_task_list, i64 16), align 16
  %12 = call ptr @list_find_first(ptr noundef %11, ptr noundef nonnull @_find_task_cg_info, ptr noundef nonnull %2) #11
  %13 = load ptr, ptr getelementptr inbounds nuw (i8, ptr @g_task_list, i64 32), align 16
  %14 = call ptr @list_find_first(ptr noundef %13, ptr noundef nonnull @_find_task_cg_info, ptr noundef nonnull %2) #11
  %.not = icmp eq ptr %14, null
  br i1 %.not, label %15, label %17

15:                                               ; preds = %1
  %16 = call i32 (ptr, ...) @error(ptr noundef nonnull @.str.63) #11
  br label %85

17:                                               ; preds = %1
  %.not36 = icmp eq ptr %12, null
  br i1 %.not36, label %18, label %20

18:                                               ; preds = %17
  %19 = call i32 (ptr, ...) @error(ptr noundef nonnull @.str.64) #11
  br label %85

20:                                               ; preds = %17
  %21 = call ptr @slurm_xcalloc(i64 noundef 1, i64 noundef 48, i1 noundef zeroext true, i1 noundef zeroext false, ptr noundef nonnull @.str.24, i32 noundef 1461, ptr noundef nonnull @__func__.cgroup_p_task_get_acct_data) #11
  %22 = getelementptr inbounds nuw i8, ptr %21, i64 8
  store i64 -2, ptr %22, align 8
  %23 = getelementptr inbounds nuw i8, ptr %21, i64 16
  store i64 -2, ptr %23, align 8
  %24 = getelementptr inbounds nuw i8, ptr %21, i64 24
  store i64 -2, ptr %24, align 8
  %25 = getelementptr inbounds nuw i8, ptr %21, i64 32
  store i64 -2, ptr %25, align 8
  %26 = getelementptr inbounds nuw i8, ptr %21, i64 40
  store i64 -2, ptr %26, align 8
  store i64 -1, ptr %21, align 8
  %27 = call i32 @common_cgroup_get_param(ptr noundef nonnull %14, ptr noundef nonnull @.str.65, ptr noundef nonnull %3, ptr noundef nonnull %6) #11
  %28 = icmp eq i32 %27, 0
  br i1 %28, label %29, label %32

29:                                               ; preds = %20
  %30 = load ptr, ptr %3, align 8
  %31 = call i32 (ptr, ptr, ...) @__isoc99_sscanf(ptr noundef %30, ptr noundef nonnull @.str.66, ptr noundef nonnull %22, ptr noundef nonnull %23) #11
  br label %32

32:                                               ; preds = %29, %20
  %33 = call i32 @common_cgroup_get_param(ptr noundef nonnull %12, ptr noundef nonnull @.str.67, ptr noundef nonnull %4, ptr noundef nonnull %7) #11
  %34 = icmp eq i32 %33, 0
  br i1 %34, label %35, label %45

35:                                               ; preds = %32
  %36 = load ptr, ptr %4, align 8
  %37 = call ptr @xstrstr(ptr noundef %36, ptr noundef nonnull @.str.68) #11
  %.not37 = icmp eq ptr %37, null
  br i1 %.not37, label %40, label %38

38:                                               ; preds = %35
  %39 = call i32 (ptr, ptr, ...) @__isoc99_sscanf(ptr noundef nonnull %37, ptr noundef nonnull @.str.69, ptr noundef nonnull %24) #11
  br label %40

40:                                               ; preds = %38, %35
  %41 = load ptr, ptr %4, align 8
  %42 = call ptr @xstrstr(ptr noundef %41, ptr noundef nonnull @.str.70) #11
  %.not38 = icmp eq ptr %42, null
  br i1 %.not38, label %45, label %43

43:                                               ; preds = %40
  %44 = call i32 (ptr, ptr, ...) @__isoc99_sscanf(ptr noundef nonnull %42, ptr noundef nonnull @.str.71, ptr noundef nonnull %25) #11
  br label %45

45:                                               ; preds = %40, %43, %32
  %46 = load i64, ptr %24, align 8
  %.not39 = icmp eq i64 %46, -2
  br i1 %.not39, label %68, label %47

47:                                               ; preds = %45
  call void @llvm.lifetime.start.p0(i64 8, ptr nonnull %9) #11
  store i64 -2, ptr %9, align 8
  call void @llvm.lifetime.start.p0(i64 8, ptr nonnull %10) #11
  store i64 -2, ptr %10, align 8
  %48 = load ptr, ptr %4, align 8
  %49 = call ptr @xstrstr(ptr noundef %48, ptr noundef nonnull @.str.72) #11
  %.not40 = icmp eq ptr %49, null
  br i1 %.not40, label %52, label %50

50:                                               ; preds = %47
  %51 = call i32 (ptr, ptr, ...) @__isoc99_sscanf(ptr noundef nonnull %49, ptr noundef nonnull @.str.73, ptr noundef nonnull %9) #11
  br label %52

52:                                               ; preds = %50, %47
  %53 = load ptr, ptr %4, align 8
  %54 = call ptr @xstrstr(ptr noundef %53, ptr noundef nonnull @.str.74) #11
  %.not41 = icmp eq ptr %54, null
  br i1 %.not41, label %57, label %55

55:                                               ; preds = %52
  %56 = call i32 (ptr, ptr, ...) @__isoc99_sscanf(ptr noundef nonnull %54, ptr noundef nonnull @.str.75, ptr noundef nonnull %10) #11
  br label %57

57:                                               ; preds = %55, %52
  %58 = load i64, ptr %24, align 8
  store i64 %58, ptr %26, align 8
  %59 = load i64, ptr %9, align 8
  %.not42 = icmp eq i64 %59, -2
  br i1 %.not42, label %62, label %60

60:                                               ; preds = %57
  %61 = add i64 %59, %58
  store i64 %61, ptr %26, align 8
  br label %62

62:                                               ; preds = %60, %57
  %63 = phi i64 [ %61, %60 ], [ %58, %57 ]
  %64 = load i64, ptr %10, align 8
  %.not43 = icmp eq i64 %64, -2
  br i1 %.not43, label %67, label %65

65:                                               ; preds = %62
  %66 = add i64 %63, %64
  store i64 %66, ptr %26, align 8
  br label %67

67:                                               ; preds = %65, %62
  call void @llvm.lifetime.end.p0(i64 8, ptr nonnull %10) #11
  call void @llvm.lifetime.end.p0(i64 8, ptr nonnull %9) #11
  br label %68

68:                                               ; preds = %67, %45
  %69 = call i32 @common_cgroup_get_param(ptr noundef nonnull %12, ptr noundef nonnull @.str.76, ptr noundef nonnull %5, ptr noundef nonnull %8) #11
  %.not44 = icmp eq i32 %69, 0
  br i1 %.not44, label %78, label %70

70:                                               ; preds = %68
  %71 = load i64, ptr getelementptr inbounds nuw (i8, ptr @slurm_conf, i64 320), align 8
  %72 = and i64 %71, 36028797018963968
  %.not45 = icmp eq i64 %72, 0
  br i1 %.not45, label %78, label %73

73:                                               ; preds = %70
  %74 = call i32 @get_log_level() #11
  %75 = icmp sgt i32 %74, 3
  br i1 %75, label %76, label %78

76:                                               ; preds = %73
  %77 = load i32, ptr %2, align 4
  call void (i32, ptr, ...) @log_var(i32 noundef 4, ptr noundef nonnull @.str.77, ptr noundef nonnull @plugin_type, ptr noundef nonnull @__func__.cgroup_p_task_get_acct_data, i32 noundef %77) #11
  br label %78

78:                                               ; preds = %70, %76, %73, %68
  %79 = load ptr, ptr %5, align 8
  %.not46 = icmp eq ptr %79, null
  br i1 %.not46, label %84, label %80

80:                                               ; preds = %78
  %81 = call i32 (ptr, ptr, ...) @__isoc99_sscanf(ptr noundef nonnull %79, ptr noundef nonnull @.str.78, ptr noundef nonnull %21) #11
  %.not47 = icmp eq i32 %81, 1
  br i1 %.not47, label %84, label %82

82:                                               ; preds = %80
  %83 = call i32 (ptr, ...) @error(ptr noundef nonnull @.str.79) #11
  br label %84

84:                                               ; preds = %80, %82, %78
  call void @slurm_xfree(ptr noundef nonnull %3) #11
  call void @slurm_xfree(ptr noundef nonnull %4) #11
  call void @slurm_xfree(ptr noundef nonnull %5) #11
  br label %85

85:                                               ; preds = %84, %18, %15
  %.0 = phi ptr [ %21, %84 ], [ null, %18 ], [ null, %15 ]
  call void @llvm.lifetime.end.p0(i64 8, ptr nonnull %8) #11
  call void @llvm.lifetime.end.p0(i64 8, ptr nonnull %7) #11
  call void @llvm.lifetime.end.p0(i64 8, ptr nonnull %6) #11
  call void @llvm.lifetime.end.p0(i64 8, ptr nonnull %5) #11
  call void @llvm.lifetime.end.p0(i64 8, ptr nonnull %4) #11
  call void @llvm.lifetime.end.p0(i64 8, ptr nonnull %3) #11
  ret ptr %.0
}